Certificate:
    Data:
        Version: 3 (0x2)
        Serial Number: 1 (0x1)
        Signature Algorithm: sha1WithRSAEncryption
        Issuer: C=NI, ST=Antrim, L=Ballymena, O=Node Cookbook, CN=Node Cookbook Root CA/emailAddress=contact@davidmarkclements.com
        Validity
            Not Before: Mar 15 21:06:21 2012 GMT
            Not After : Mar 15 21:06:21 2013 GMT
        Subject: C=NI, ST=Antrim, O=Node Cookbook, CN=davidmarkclements.com
        Subject Public Key Info:
            Public Key Algorithm: rsaEncryption
            RSA Public Key: (1024 bit)
                Modulus (1024 bit):
                    00:e4:5a:72:04:a6:06:b2:5e:8b:77:ef:9c:9d:e4:
                    42:8e:ed:b5:18:0f:42:6f:9b:e0:14:c1:c4:85:df:
                    0c:02:22:f8:ea:43:56:e8:b6:92:51:ec:88:0f:4a:
                    12:c7:30:f1:c7:2a:f8:32:ea:7d:f7:89:6e:7a:0d:
                    24:ef:67:06:c2:9e:63:97:d7:4b:0d:28:e2:07:45:
                    d6:33:fc:da:03:9b:2c:9a:ac:1c:5d:d7:47:b1:d9:
                    27:03:84:45:25:a2:5e:ab:b5:a5:aa:69:64:27:3f:
                    e7:93:d4:3c:ab:3a:6b:bd:d5:47:0a:c4:f4:8f:f5:
                    38:4d:1b:39:19:e9:bc:1c:8f
                Exponent: 65537 (0x10001)
        X509v3 extensions:
            X509v3 Basic Constraints: 
                CA:FALSE
            X509v3 Subject Key Identifier: 
                0F:79:86:D7:22:AA:B2:47:A6:C7:5B:63:D9:E9:B3:CD:74:B6:F7:68
            X509v3 Authority Key Identifier: 
                keyid:70:3A:01:1D:64:E5:D7:4F:1C:BF:7E:CA:22:FB:5E:57:F2:65:86:03
                DirName:/C=NI/ST=Antrim/L=Ballymena/O=Node Cookbook/CN=Node Cookbook Root CA/emailAddress=contact@davidmarkclements.com
                serial:B8:65:69:2A:C1:0F:AE:C9

            Netscape CA Revocation Url: 
                ..
    Signature Algorithm: sha1WithRSAEncryption
        75:11:a1:83:76:7d:b0:b4:fb:ff:fa:ff:c3:b3:b5:27:2a:5e:
        fb:24:59:c0:6d:b8:50:2a:3b:27:10:c9:2f:4b:ac:16:8f:d4:
        e4:95:c6:74:68:1c:9c:3b:24:8c:cc:0e:b6:c3:12:de:50:8e:
        5e:85:71:25:bf:12:47:17:bb:b6:a2:9c:b7:4e:40:9f:5e:67:
        59:bb:5f:15:c5:80:0b:e2:da:72:d0:a5:9d:01:53:bd:93:70:
        35:2e:50:51:a4:43:bd:4a:d6:46:d9:e5:3a:74:75:64:c5:af:
        43:83:d0:aa:28:52:6b:40:66:09:7e:55:8c:c4:a2:25:af:fe:
        89:18
-----BEGIN CERTIFICATE-----
MIIDdjCCAt+gAwIBAgIBATANBgkqhkiG9w0BAQUFADCBmDELMAkGA1UEBhMCTkkx
DzANBgNVBAgTBkFudHJpbTESMBAGA1UEBxMJQmFsbHltZW5hMRYwFAYDVQQKEw1O
b2RlIENvb2tib29rMR4wHAYDVQQDExVOb2RlIENvb2tib29rIFJvb3QgQ0ExLDAq
BgkqhkiG9w0BCQEWHWNvbnRhY3RAZGF2aWRtYXJrY2xlbWVudHMuY29tMB4XDTEy
MDMxNTIxMDYyMVoXDTEzMDMxNTIxMDYyMVowVjELMAkGA1UEBhMCTkkxDzANBgNV
BAgTBkFudHJpbTEWMBQGA1UEChMNTm9kZSBDb29rYm9vazEeMBwGA1UEAxMVZGF2
aWRtYXJrY2xlbWVudHMuY29tMIGfMA0GCSqGSIb3DQEBAQUAA4GNADCBiQKBgQDk
WnIEpgayXot375yd5EKO7bUYD0Jvm+AUwcSF3wwCIvjqQ1botpJR7IgPShLHMPHH
Kvgy6n33iW56DSTvZwbCnmOX10sNKOIHRdYz/NoDmyyarBxd10ex2ScDhEUlol6r
taWqaWQnP+eT1DyrOmu91UcKxPSP9ThNGzkZ6bwcjwIDAQABo4IBDzCCAQswCQYD
VR0TBAIwADAdBgNVHQ4EFgQUD3mG1yKqskemx1tj2emzzXS292gwgc0GA1UdIwSB
xTCBwoAUcDoBHWTl108cv37KIvteV/JlhgOhgZ6kgZswgZgxCzAJBgNVBAYTAk5J
MQ8wDQYDVQQIEwZBbnRyaW0xEjAQBgNVBAcTCUJhbGx5bWVuYTEWMBQGA1UEChMN
Tm9kZSBDb29rYm9vazEeMBwGA1UEAxMVTm9kZSBDb29rYm9vayBSb290IENBMSww
KgYJKoZIhvcNAQkBFh1jb250YWN0QGRhdmlkbWFya2NsZW1lbnRzLmNvbYIJALhl
aSrBD67JMA8GCWCGSAGG+EIBBAQCFgAwDQYJKoZIhvcNAQEFBQADgYEAdRGhg3Z9
sLT7//r/w7O1Jype+yRZwG24UCo7JxDJL0usFo/U5JXGdGgcnDskjMwOtsMS3lCO
XoVxJb8SRxe7tqKct05An15nWbtfFcWAC+LactClnQFTvZNwNS5QUaRDvUrWRtnl
OnR1ZMWvQ4PQqihSa0BmCX5VjMSiJa/+iRg=
-----END CERTIFICATE-----
