Certificate:
    Data:
        Version: 3 (0x2)
        Serial Number: 2 (0x2)
        Signature Algorithm: sha1WithRSAEncryption
        Issuer: C=NI, ST=Antrim, L=Ballymena, O=Node Cookbook, CN=Node Cookbook Root CA/emailAddress=contact@davidmarkclements.com
        Validity
            Not Before: Mar 15 21:06:40 2012 GMT
            Not After : Mar 15 21:06:40 2013 GMT
        Subject: C=NI, ST=Antrim, O=Node Cookbook, CN=nodecookbook.com
        Subject Public Key Info:
            Public Key Algorithm: rsaEncryption
            RSA Public Key: (1024 bit)
                Modulus (1024 bit):
                    00:ba:95:ca:25:d9:1c:b3:73:77:31:83:87:ec:00:
                    a0:da:e5:62:b1:e9:15:42:39:92:7f:c4:53:4f:a9:
                    ff:f2:c8:9a:1e:49:c5:8b:40:37:e9:16:93:24:d7:
                    eb:1b:c3:df:48:a7:6e:3d:bd:bf:d9:09:22:91:e7:
                    b2:67:3d:dc:7c:9d:48:8c:1a:45:5f:ce:4a:20:5a:
                    08:0a:8b:f6:e5:d7:28:40:5f:50:55:ef:72:2f:2b:
                    4d:66:0b:19:5c:bd:21:f9:f5:88:eb:c1:71:46:06:
                    3b:12:bd:d1:5b:ef:25:8b:6d:ee:eb:96:95:f5:bb:
                    c3:ad:9e:08:be:c5:74:51:95
                Exponent: 65537 (0x10001)
        X509v3 extensions:
            X509v3 Basic Constraints: 
                CA:FALSE
            X509v3 Subject Key Identifier: 
                F9:DA:60:1E:34:3C:16:65:2D:59:80:14:FC:C0:20:8D:75:98:73:CD
            X509v3 Authority Key Identifier: 
                keyid:70:3A:01:1D:64:E5:D7:4F:1C:BF:7E:CA:22:FB:5E:57:F2:65:86:03
                DirName:/C=NI/ST=Antrim/L=Ballymena/O=Node Cookbook/CN=Node Cookbook Root CA/emailAddress=contact@davidmarkclements.com
                serial:B8:65:69:2A:C1:0F:AE:C9

            Netscape CA Revocation Url: 
                ..
    Signature Algorithm: sha1WithRSAEncryption
        77:0f:b1:52:d8:07:e2:a6:eb:43:bf:df:0b:b6:a4:87:87:7d:
        77:50:9c:75:35:12:bb:cc:bd:dd:84:df:a3:0f:28:65:04:eb:
        25:59:0c:fe:31:75:05:f3:d7:fb:4b:06:3e:ae:0a:b4:a4:31:
        a9:7d:90:b3:0a:29:6a:da:19:61:f6:9b:c1:8b:a0:60:2d:9f:
        a3:10:91:d7:d5:81:7c:aa:b9:4a:90:db:02:f9:76:eb:0b:bf:
        2c:39:55:db:a9:dc:b2:52:48:25:e0:a8:64:aa:5e:a6:f0:43:
        1f:42:92:90:d5:69:00:92:de:69:10:5c:5f:12:d2:6f:de:2a:
        31:ab
-----BEGIN CERTIFICATE-----
MIIDcTCCAtqgAwIBAgIBAjANBgkqhkiG9w0BAQUFADCBmDELMAkGA1UEBhMCTkkx
DzANBgNVBAgTBkFudHJpbTESMBAGA1UEBxMJQmFsbHltZW5hMRYwFAYDVQQKEw1O
b2RlIENvb2tib29rMR4wHAYDVQQDExVOb2RlIENvb2tib29rIFJvb3QgQ0ExLDAq
BgkqhkiG9w0BCQEWHWNvbnRhY3RAZGF2aWRtYXJrY2xlbWVudHMuY29tMB4XDTEy
MDMxNTIxMDY0MFoXDTEzMDMxNTIxMDY0MFowUTELMAkGA1UEBhMCTkkxDzANBgNV
BAgTBkFudHJpbTEWMBQGA1UEChMNTm9kZSBDb29rYm9vazEZMBcGA1UEAxMQbm9k
ZWNvb2tib29rLmNvbTCBnzANBgkqhkiG9w0BAQEFAAOBjQAwgYkCgYEAupXKJdkc
s3N3MYOH7ACg2uVisekVQjmSf8RTT6n/8siaHknFi0A36RaTJNfrG8PfSKduPb2/
2QkikeeyZz3cfJ1IjBpFX85KIFoICov25dcoQF9QVe9yLytNZgsZXL0h+fWI68Fx
RgY7Er3RW+8li23u65aV9bvDrZ4IvsV0UZUCAwEAAaOCAQ8wggELMAkGA1UdEwQC
MAAwHQYDVR0OBBYEFPnaYB40PBZlLVmAFPzAII11mHPNMIHNBgNVHSMEgcUwgcKA
FHA6AR1k5ddPHL9+yiL7XlfyZYYDoYGepIGbMIGYMQswCQYDVQQGEwJOSTEPMA0G
A1UECBMGQW50cmltMRIwEAYDVQQHEwlCYWxseW1lbmExFjAUBgNVBAoTDU5vZGUg
Q29va2Jvb2sxHjAcBgNVBAMTFU5vZGUgQ29va2Jvb2sgUm9vdCBDQTEsMCoGCSqG
SIb3DQEJARYdY29udGFjdEBkYXZpZG1hcmtjbGVtZW50cy5jb22CCQC4ZWkqwQ+u
yTAPBglghkgBhvhCAQQEAhYAMA0GCSqGSIb3DQEBBQUAA4GBAHcPsVLYB+Km60O/
3wu2pIeHfXdQnHU1ErvMvd2E36MPKGUE6yVZDP4xdQXz1/tLBj6uCrSkMal9kLMK
KWraGWH2m8GLoGAtn6MQkdfVgXyquUqQ2wL5dusLvyw5Vdup3LJSSCXgqGSqXqbw
Qx9CkpDVaQCS3mkQXF8S0m/eKjGr
-----END CERTIFICATE-----
